target datalayout = "e-m:e-p270:32:32-p271:32:32-p272:64:64-i64:64-i128:128-f80:128-n8:16:32:64-S128"
target triple = "x86_64-pc-linux-gnu"

%struct.WebPIDecoder = type { i32, %struct.WebPDecParams, i32, ptr, %struct.VP8Io, %struct.MemBuffer, %struct.WebPDecBuffer, ptr, i64, i32 }
%struct.WebPDecParams = type { ptr, ptr, ptr, ptr, i32, ptr, ptr, ptr, ptr, ptr, ptr, ptr, ptr, ptr }
%struct.VP8Io = type { i32, i32, i32, i32, i32, ptr, ptr, ptr, i32, i32, ptr, ptr, ptr, ptr, i32, i64, ptr, i32, i32, i32, i32, i32, i32, i32, i32, i32, ptr }
%struct.MemBuffer = type { i32, i64, i64, i64, ptr, i64, ptr }
%struct.WebPDecBuffer = type { i32, i32, i32, i32, %union.anon, [4 x i32], ptr }
%union.anon = type { %struct.WebPYUVABuffer }
%struct.WebPYUVABuffer = type { ptr, ptr, ptr, ptr, i32, i32, i32, i32, i64, i64, i64, i64 }
%struct.VP8Decoder = type { i32, i32, ptr, %struct.VP8BitReader, i32, %struct.VP8FrameHeader, %struct.VP8PictureHeader, %struct.VP8FilterHeader, %struct.VP8SegmentHeader, %struct.WebPWorker, i32, i32, i32, %struct.VP8ThreadContext, i32, i32, i32, i32, i32, i32, i32, [8 x %struct.VP8BitReader], i32, %struct.VP8Random, [4 x %struct.VP8QuantMatrix], %struct.VP8Proba, i32, i8, ptr, [4 x i8], ptr, ptr, ptr, ptr, ptr, ptr, ptr, i32, i32, ptr, i64, i32, i32, ptr, i32, [4 x [2 x %struct.VP8FInfo]], ptr, ptr, i64, i32, ptr, ptr, ptr, i32 }
%struct.VP8BitReader = type { i64, i32, i32, ptr, ptr, ptr, i32 }
%struct.VP8FrameHeader = type { i8, i8, i8, i32 }
%struct.VP8PictureHeader = type { i16, i16, i8, i8, i8, i8 }
%struct.VP8FilterHeader = type { i32, i32, i32, i32, [4 x i32], [4 x i32] }
%struct.VP8SegmentHeader = type { i32, i32, i32, [4 x i8], [4 x i8] }
%struct.WebPWorker = type { ptr, i32, ptr, ptr, ptr, i32 }
%struct.VP8ThreadContext = type { i32, i32, i32, ptr, ptr, %struct.VP8Io }
%struct.VP8Random = type { i32, i32, [55 x i32], i32 }
%struct.VP8QuantMatrix = type { [2 x i32], [2 x i32], [2 x i32], i32, i32 }
%struct.VP8Proba = type { [3 x i8], [4 x [8 x %struct.VP8BandProbas]], [4 x [17 x ptr]] }
%struct.VP8BandProbas = type { [3 x [11 x i8]] }
%struct.VP8FInfo = type { i8, i8, i8, i8 }
%struct.ALPHDecoder = type { i32, i32, i32, i32, i32, ptr, %struct.VP8Io, i32, ptr, ptr }
%struct.VP8LDecoder = type { i32, i32, ptr, ptr, ptr, ptr, %struct.VP8LBitReader, i32, %struct.VP8LBitReader, i32, i32, i32, i32, i32, i32, %struct.VP8LMetadata, i32, [4 x %struct.VP8LTransform], i32, ptr, ptr }
%struct.VP8LBitReader = type { i64, ptr, i64, i64, i32, i32 }
%struct.VP8LMetadata = type { i32, %struct.VP8LColorCache, %struct.VP8LColorCache, i32, i32, i32, ptr, i32, ptr, %struct.HuffmanTables }
%struct.VP8LColorCache = type { ptr, i32, i32 }
%struct.HuffmanTables = type { %struct.HuffmanTablesSegment, ptr }
%struct.HuffmanTablesSegment = type { ptr, ptr, ptr, i32 }
%struct.VP8LTransform = type { i32, i32, i32, i32, ptr }

; Function Attrs: nounwind uwtable
define internal i32 @NeedCompressedAlpha(ptr noundef %0) #0 {
  %2 = alloca i32, align 4
  %3 = alloca ptr, align 8
  %4 = alloca ptr, align 8
  store ptr %0, ptr %3, align 8, !tbaa !10
  %5 = load ptr, ptr %3, align 8, !tbaa !10
  %6 = getelementptr inbounds nuw %struct.WebPIDecoder, ptr %5, i32 0, i32 0
  %7 = load i32, ptr %6, align 8, !tbaa !12
  %8 = icmp eq i32 %7, 0
  br i1 %8, label %9, label %10

9:                                                ; preds = %1
  store i32 0, ptr %2, align 4
  br label %33

10:                                               ; preds = %1
  %11 = load ptr, ptr %3, align 8, !tbaa !10
  %12 = getelementptr inbounds nuw %struct.WebPIDecoder, ptr %11, i32 0, i32 2
  %13 = load i32, ptr %12, align 8, !tbaa !34
  %14 = icmp ne i32 %13, 0
  br i1 %14, label %15, label %16

15:                                               ; preds = %10
  store i32 0, ptr %2, align 4
  br label %33

16:                                               ; preds = %10
  call void @llvm.lifetime.start.p0(i64 8, ptr %4) #6
  %17 = load ptr, ptr %3, align 8, !tbaa !10
  %18 = getelementptr inbounds nuw %struct.WebPIDecoder, ptr %17, i32 0, i32 3
  %19 = load ptr, ptr %18, align 8, !tbaa !33
  store ptr %19, ptr %4, align 8, !tbaa !43
  %20 = load ptr, ptr %4, align 8, !tbaa !43
  %21 = getelementptr inbounds nuw %struct.VP8Decoder, ptr %20, i32 0, i32 47
  %22 = load ptr, ptr %21, align 8, !tbaa !46
  %23 = icmp ne ptr %22, null
  br i1 %23, label %24, label %30

24:                                               ; preds = %16
  %25 = load ptr, ptr %4, align 8, !tbaa !43
  %26 = getelementptr inbounds nuw %struct.VP8Decoder, ptr %25, i32 0, i32 49
  %27 = load i32, ptr %26, align 8, !tbaa !75
  %28 = icmp ne i32 %27, 0
  %29 = xor i1 %28, true
  br label %30

30:                                               ; preds = %24, %16
  %31 = phi i1 [ false, %16 ], [ %29, %24 ]
  %32 = zext i1 %31 to i32
  store i32 %32, ptr %2, align 4
  call void @llvm.lifetime.end.p0(i64 8, ptr %4) #6
  br label %33

33:                                               ; preds = %30, %15, %9
  %34 = load i32, ptr %2, align 4
  ret i32 %34
}

; Function Attrs: inlinehint nounwind uwtable
define internal i64 @MemDataSize(ptr noundef %0) #3 {
  %2 = alloca ptr, align 8
  store ptr %0, ptr %2, align 8, !tbaa !35
  %3 = load ptr, ptr %2, align 8, !tbaa !35
  %4 = getelementptr inbounds nuw %struct.MemBuffer, ptr %3, i32 0, i32 2
  %5 = load i64, ptr %4, align 8, !tbaa !59
  %6 = load ptr, ptr %2, align 8, !tbaa !35
  %7 = getelementptr inbounds nuw %struct.MemBuffer, ptr %6, i32 0, i32 1
  %8 = load i64, ptr %7, align 8, !tbaa !45
  %9 = sub i64 %5, %8
  ret i64 %9
}

; Function Attrs: nounwind uwtable
define internal void @DoRemap(ptr noundef %0, i64 noundef %1) #0 {
  %3 = alloca ptr, align 8
  %4 = alloca i64, align 8
  %5 = alloca ptr, align 8
  %6 = alloca ptr, align 8
  %7 = alloca ptr, align 8
  %8 = alloca i32, align 4
  %9 = alloca i32, align 4
  %10 = alloca ptr, align 8
  %11 = alloca ptr, align 8
  %12 = alloca ptr, align 8
  %13 = alloca ptr, align 8
  store ptr %0, ptr %3, align 8, !tbaa !10
  store i64 %1, ptr %4, align 8, !tbaa !29
  call void @llvm.lifetime.start.p0(i64 8, ptr %5) #6
  %14 = load ptr, ptr %3, align 8, !tbaa !10
  %15 = getelementptr inbounds nuw %struct.WebPIDecoder, ptr %14, i32 0, i32 5
  store ptr %15, ptr %5, align 8, !tbaa !35
  call void @llvm.lifetime.start.p0(i64 8, ptr %6) #6
  %16 = load ptr, ptr %5, align 8, !tbaa !35
  %17 = getelementptr inbounds nuw %struct.MemBuffer, ptr %16, i32 0, i32 4
  %18 = load ptr, ptr %17, align 8, !tbaa !37
  %19 = load ptr, ptr %5, align 8, !tbaa !35
  %20 = getelementptr inbounds nuw %struct.MemBuffer, ptr %19, i32 0, i32 1
  %21 = load i64, ptr %20, align 8, !tbaa !45
  %22 = getelementptr inbounds nuw i8, ptr %18, i64 %21
  store ptr %22, ptr %6, align 8, !tbaa !28
  %23 = load ptr, ptr %6, align 8, !tbaa !28
  %24 = load ptr, ptr %3, align 8, !tbaa !10
  %25 = getelementptr inbounds nuw %struct.WebPIDecoder, ptr %24, i32 0, i32 4
  %26 = getelementptr inbounds nuw %struct.VP8Io, ptr %25, i32 0, i32 16
  store ptr %23, ptr %26, align 8, !tbaa !76
  %27 = load ptr, ptr %5, align 8, !tbaa !35
  %28 = call i64 @MemDataSize(ptr noundef %27)
  %29 = load ptr, ptr %3, align 8, !tbaa !10
  %30 = getelementptr inbounds nuw %struct.WebPIDecoder, ptr %29, i32 0, i32 4
  %31 = getelementptr inbounds nuw %struct.VP8Io, ptr %30, i32 0, i32 15
  store i64 %28, ptr %31, align 8, !tbaa !77
  %32 = load ptr, ptr %3, align 8, !tbaa !10
  %33 = getelementptr inbounds nuw %struct.WebPIDecoder, ptr %32, i32 0, i32 3
  %34 = load ptr, ptr %33, align 8, !tbaa !33
  %35 = icmp ne ptr %34, null
  br i1 %35, label %36, label %153

36:                                               ; preds = %2
  %37 = load ptr, ptr %3, align 8, !tbaa !10
  %38 = getelementptr inbounds nuw %struct.WebPIDecoder, ptr %37, i32 0, i32 2
  %39 = load i32, ptr %38, align 8, !tbaa !34
  %40 = icmp ne i32 %39, 0
  br i1 %40, label %143, label %41

41:                                               ; preds = %36
  call void @llvm.lifetime.start.p0(i64 8, ptr %7) #6
  %42 = load ptr, ptr %3, align 8, !tbaa !10
  %43 = getelementptr inbounds nuw %struct.WebPIDecoder, ptr %42, i32 0, i32 3
  %44 = load ptr, ptr %43, align 8, !tbaa !33
  store ptr %44, ptr %7, align 8, !tbaa !43
  call void @llvm.lifetime.start.p0(i64 4, ptr %8) #6
  %45 = load ptr, ptr %7, align 8, !tbaa !43
  %46 = getelementptr inbounds nuw %struct.VP8Decoder, ptr %45, i32 0, i32 20
  %47 = load i32, ptr %46, align 8, !tbaa !78
  store i32 %47, ptr %8, align 4, !tbaa !39
  %48 = load i64, ptr %4, align 8, !tbaa !29
  %49 = icmp ne i64 %48, 0
  br i1 %49, label %50, label %76

50:                                               ; preds = %41
  call void @llvm.lifetime.start.p0(i64 4, ptr %9) #6
  store i32 0, ptr %9, align 4, !tbaa !39
  br label %51

51:                                               ; preds = %63, %50
  %52 = load i32, ptr %9, align 4, !tbaa !39
  %53 = load i32, ptr %8, align 4, !tbaa !39
  %54 = icmp ule i32 %52, %53
  br i1 %54, label %55, label %66

55:                                               ; preds = %51
  %56 = load ptr, ptr %7, align 8, !tbaa !43
  %57 = getelementptr inbounds nuw %struct.VP8Decoder, ptr %56, i32 0, i32 21
  %58 = getelementptr inbounds [8 x %struct.VP8BitReader], ptr %57, i64 0, i64 0
  %59 = load i32, ptr %9, align 4, !tbaa !39
  %60 = zext i32 %59 to i64
  %61 = getelementptr inbounds nuw %struct.VP8BitReader, ptr %58, i64 %60
  %62 = load i64, ptr %4, align 8, !tbaa !29
  call void @VP8RemapBitReader(ptr noundef %61, i64 noundef %62)
  br label %63

63:                                               ; preds = %55
  %64 = load i32, ptr %9, align 4, !tbaa !39
  %65 = add i32 %64, 1
  store i32 %65, ptr %9, align 4, !tbaa !39
  br label %51, !llvm.loop !79

66:                                               ; preds = %51
  %67 = load ptr, ptr %5, align 8, !tbaa !35
  %68 = getelementptr inbounds nuw %struct.MemBuffer, ptr %67, i32 0, i32 0
  %69 = load i32, ptr %68, align 8, !tbaa !36
  %70 = icmp eq i32 %69, 2
  br i1 %70, label %71, label %75

71:                                               ; preds = %66
  %72 = load ptr, ptr %7, align 8, !tbaa !43
  %73 = getelementptr inbounds nuw %struct.VP8Decoder, ptr %72, i32 0, i32 3
  %74 = load i64, ptr %4, align 8, !tbaa !29
  call void @VP8RemapBitReader(ptr noundef %73, i64 noundef %74)
  br label %75

75:                                               ; preds = %71, %66
  call void @llvm.lifetime.end.p0(i64 4, ptr %9) #6
  br label %76

76:                                               ; preds = %75, %41
  call void @llvm.lifetime.start.p0(i64 8, ptr %10) #6
  %77 = load ptr, ptr %7, align 8, !tbaa !43
  %78 = getelementptr inbounds nuw %struct.VP8Decoder, ptr %77, i32 0, i32 21
  %79 = load i32, ptr %8, align 4, !tbaa !39
  %80 = zext i32 %79 to i64
  %81 = getelementptr inbounds nuw [8 x %struct.VP8BitReader], ptr %78, i64 0, i64 %80
  %82 = getelementptr inbounds nuw %struct.VP8BitReader, ptr %81, i32 0, i32 3
  %83 = load ptr, ptr %82, align 8, !tbaa !81
  store ptr %83, ptr %10, align 8, !tbaa !28
  %84 = load ptr, ptr %7, align 8, !tbaa !43
  %85 = getelementptr inbounds nuw %struct.VP8Decoder, ptr %84, i32 0, i32 21
  %86 = load i32, ptr %8, align 4, !tbaa !39
  %87 = zext i32 %86 to i64
  %88 = getelementptr inbounds nuw [8 x %struct.VP8BitReader], ptr %85, i64 0, i64 %87
  %89 = load ptr, ptr %10, align 8, !tbaa !28
  %90 = load ptr, ptr %5, align 8, !tbaa !35
  %91 = getelementptr inbounds nuw %struct.MemBuffer, ptr %90, i32 0, i32 4
  %92 = load ptr, ptr %91, align 8, !tbaa !37
  %93 = load ptr, ptr %5, align 8, !tbaa !35
  %94 = getelementptr inbounds nuw %struct.MemBuffer, ptr %93, i32 0, i32 2
  %95 = load i64, ptr %94, align 8, !tbaa !59
  %96 = getelementptr inbounds nuw i8, ptr %92, i64 %95
  %97 = load ptr, ptr %10, align 8, !tbaa !28
  %98 = ptrtoint ptr %96 to i64
  %99 = ptrtoint ptr %97 to i64
  %100 = sub i64 %98, %99
  call void @VP8BitReaderSetBuffer(ptr noundef %88, ptr noundef %89, i64 noundef %100)
  call void @llvm.lifetime.end.p0(i64 8, ptr %10) #6
  %101 = load ptr, ptr %3, align 8, !tbaa !10
  %102 = call i32 @NeedCompressedAlpha(ptr noundef %101)
  %103 = icmp ne i32 %102, 0
  br i1 %103, label %104, label %142

104:                                              ; preds = %76
  call void @llvm.lifetime.start.p0(i64 8, ptr %11) #6
  %105 = load ptr, ptr %7, align 8, !tbaa !43
  %106 = getelementptr inbounds nuw %struct.VP8Decoder, ptr %105, i32 0, i32 46
  %107 = load ptr, ptr %106, align 8, !tbaa !82
  store ptr %107, ptr %11, align 8, !tbaa !83
  %108 = load i64, ptr %4, align 8, !tbaa !29
  %109 = load ptr, ptr %7, align 8, !tbaa !43
  %110 = getelementptr inbounds nuw %struct.VP8Decoder, ptr %109, i32 0, i32 47
  %111 = load ptr, ptr %110, align 8, !tbaa !46
  %112 = getelementptr inbounds i8, ptr %111, i64 %108
  store ptr %112, ptr %110, align 8, !tbaa !46
  %113 = load ptr, ptr %11, align 8, !tbaa !83
  %114 = icmp ne ptr %113, null
  br i1 %114, label %115, label %141

115:                                              ; preds = %104
  %116 = load ptr, ptr %11, align 8, !tbaa !83
  %117 = getelementptr inbounds nuw %struct.ALPHDecoder, ptr %116, i32 0, i32 5
  %118 = load ptr, ptr %117, align 8, !tbaa !84
  %119 = icmp ne ptr %118, null
  br i1 %119, label %120, label %141

120:                                              ; preds = %115
  %121 = load ptr, ptr %11, align 8, !tbaa !83
  %122 = getelementptr inbounds nuw %struct.ALPHDecoder, ptr %121, i32 0, i32 2
  %123 = load i32, ptr %122, align 8, !tbaa !87
  %124 = icmp eq i32 %123, 1
  br i1 %124, label %125, label %139

125:                                              ; preds = %120
  call void @llvm.lifetime.start.p0(i64 8, ptr %12) #6
  %126 = load ptr, ptr %11, align 8, !tbaa !83
  %127 = getelementptr inbounds nuw %struct.ALPHDecoder, ptr %126, i32 0, i32 5
  %128 = load ptr, ptr %127, align 8, !tbaa !84
  store ptr %128, ptr %12, align 8, !tbaa !88
  %129 = load ptr, ptr %12, align 8, !tbaa !88
  %130 = getelementptr inbounds nuw %struct.VP8LDecoder, ptr %129, i32 0, i32 6
  %131 = load ptr, ptr %7, align 8, !tbaa !43
  %132 = getelementptr inbounds nuw %struct.VP8Decoder, ptr %131, i32 0, i32 47
  %133 = load ptr, ptr %132, align 8, !tbaa !46
  %134 = getelementptr inbounds i8, ptr %133, i64 1
  %135 = load ptr, ptr %7, align 8, !tbaa !43
  %136 = getelementptr inbounds nuw %struct.VP8Decoder, ptr %135, i32 0, i32 48
  %137 = load i64, ptr %136, align 8, !tbaa !89
  %138 = sub i64 %137, 1
  call void @VP8LBitReaderSetBuffer(ptr noundef %130, ptr noundef %134, i64 noundef %138)
  call void @llvm.lifetime.end.p0(i64 8, ptr %12) #6
  br label %140

139:                                              ; preds = %120
  br label %140

140:                                              ; preds = %139, %125
  br label %141

141:                                              ; preds = %140, %115, %104
  call void @llvm.lifetime.end.p0(i64 8, ptr %11) #6
  br label %142

142:                                              ; preds = %141, %76
  call void @llvm.lifetime.end.p0(i64 4, ptr %8) #6
  call void @llvm.lifetime.end.p0(i64 8, ptr %7) #6
  br label %152

143:                                              ; preds = %36
  call void @llvm.lifetime.start.p0(i64 8, ptr %13) #6
  %144 = load ptr, ptr %3, align 8, !tbaa !10
  %145 = getelementptr inbounds nuw %struct.WebPIDecoder, ptr %144, i32 0, i32 3
  %146 = load ptr, ptr %145, align 8, !tbaa !33
  store ptr %146, ptr %13, align 8, !tbaa !88
  %147 = load ptr, ptr %13, align 8, !tbaa !88
  %148 = getelementptr inbounds nuw %struct.VP8LDecoder, ptr %147, i32 0, i32 6
  %149 = load ptr, ptr %6, align 8, !tbaa !28
  %150 = load ptr, ptr %5, align 8, !tbaa !35
  %151 = call i64 @MemDataSize(ptr noundef %150)
  call void @VP8LBitReaderSetBuffer(ptr noundef %148, ptr noundef %149, i64 noundef %151)
  call void @llvm.lifetime.end.p0(i64 8, ptr %13) #6
  br label %152

152:                                              ; preds = %143, %142
  br label %153

153:                                              ; preds = %152, %2
  call void @llvm.lifetime.end.p0(i64 8, ptr %6) #6
  call void @llvm.lifetime.end.p0(i64 8, ptr %5) #6
  ret void
}