; Function Attrs: nounwind uwtable
define internal fastcc void @DoRemap(ptr noundef nonnull captures(none) initializes((232, 248)) %0, i64 noundef %1) unnamed_addr #0 {
  %3 = getelementptr inbounds nuw i8, ptr %0, i64 296
  %4 = getelementptr inbounds nuw i8, ptr %0, i64 328
  %5 = load ptr, ptr %4, align 8, !tbaa !27
  %6 = getelementptr inbounds nuw i8, ptr %0, i64 304
  %7 = load i64, ptr %6, align 8, !tbaa !46
  %8 = getelementptr inbounds nuw i8, ptr %5, i64 %7
  %9 = getelementptr inbounds nuw i8, ptr %0, i64 240
  store ptr %8, ptr %9, align 8, !tbaa !60
  %10 = getelementptr i8, ptr %0, i64 312
  %.val55 = load i64, ptr %10, align 8, !tbaa !47
  %11 = sub i64 %.val55, %7
  %12 = getelementptr inbounds nuw i8, ptr %0, i64 232
  store i64 %11, ptr %12, align 8, !tbaa !61
  %13 = getelementptr inbounds nuw i8, ptr %0, i64 128
  %14 = load ptr, ptr %13, align 8, !tbaa !25
  %.not = icmp eq ptr %14, null
  br i1 %.not, label %NeedCompressedAlpha.exit.thread, label %15

15:                                               ; preds = %2
  %16 = getelementptr inbounds nuw i8, ptr %0, i64 120
  %17 = load i32, ptr %16, align 8, !tbaa !26
  %.not47 = icmp eq i32 %17, 0
  br i1 %.not47, label %18, label %72

18:                                               ; preds = %15
  %19 = getelementptr inbounds nuw i8, ptr %14, i64 432
  %20 = load i32, ptr %19, align 8, !tbaa !78
  %.not48 = icmp eq i64 %1, 0
  br i1 %.not48, label %31, label %.preheader

.preheader:                                       ; preds = %18
  %21 = getelementptr inbounds nuw i8, ptr %14, i64 440
  br label %22

22:                                               ; preds = %.preheader, %22
  %.058 = phi i32 [ 0, %.preheader ], [ %25, %22 ]
  %23 = zext i32 %.058 to i64
  %24 = getelementptr inbounds nuw %struct.VP8BitReader, ptr %21, i64 %23
  tail call void @VP8RemapBitReader(ptr noundef nonnull %24, i64 noundef %1) #7
  %25 = add i32 %.058, 1
  %.not49 = icmp ugt i32 %25, %20
  br i1 %.not49, label %26, label %22, !llvm.loop !111

26:                                               ; preds = %22
  %27 = load i32, ptr %3, align 8, !tbaa !20
  %28 = icmp eq i32 %27, 2
  br i1 %28, label %29, label %31

29:                                               ; preds = %26
  %30 = getelementptr inbounds nuw i8, ptr %14, i64 16
  tail call void @VP8RemapBitReader(ptr noundef nonnull %30, i64 noundef %1) #7
  br label %31

31:                                               ; preds = %26, %29, %18
  %32 = getelementptr inbounds nuw i8, ptr %14, i64 440
  %33 = zext i32 %20 to i64
  %34 = getelementptr inbounds nuw [8 x %struct.VP8BitReader], ptr %32, i64 0, i64 %33
  %35 = getelementptr inbounds nuw i8, ptr %34, i64 16
  %36 = load ptr, ptr %35, align 8, !tbaa !72
  %37 = load ptr, ptr %4, align 8, !tbaa !27
  %38 = load i64, ptr %10, align 8, !tbaa !47
  %39 = getelementptr inbounds nuw i8, ptr %37, i64 %38
  %40 = ptrtoint ptr %39 to i64
  %41 = ptrtoint ptr %36 to i64
  %42 = sub i64 %40, %41
  tail call void @VP8BitReaderSetBuffer(ptr noundef nonnull %34, ptr noundef %36, i64 noundef %42) #7
  %43 = load i32, ptr %0, align 8, !tbaa !3
  %44 = icmp eq i32 %43, 0
  br i1 %44, label %NeedCompressedAlpha.exit.thread, label %45

45:                                               ; preds = %31
  %46 = load i32, ptr %16, align 8, !tbaa !26
  %.not.i = icmp eq i32 %46, 0
  br i1 %.not.i, label %47, label %NeedCompressedAlpha.exit.thread

47:                                               ; preds = %45
  %48 = load ptr, ptr %13, align 8, !tbaa !25
  %49 = getelementptr inbounds nuw i8, ptr %48, i64 2968
  %50 = load ptr, ptr %49, align 8, !tbaa !32
  %.not5.i = icmp eq ptr %50, null
  br i1 %.not5.i, label %NeedCompressedAlpha.exit.thread, label %NeedCompressedAlpha.exit

NeedCompressedAlpha.exit:                         ; preds = %47
  %51 = getelementptr inbounds nuw i8, ptr %48, i64 2984
  %52 = load i32, ptr %51, align 8, !tbaa !45
  %.not6.i.not = icmp eq i32 %52, 0
  br i1 %.not6.i.not, label %53, label %NeedCompressedAlpha.exit.thread

53:                                               ; preds = %NeedCompressedAlpha.exit
  %54 = getelementptr inbounds nuw i8, ptr %14, i64 2960
  %55 = load ptr, ptr %54, align 8, !tbaa !112
  %56 = getelementptr inbounds nuw i8, ptr %14, i64 2968
  %57 = load ptr, ptr %56, align 8, !tbaa !32
  %58 = getelementptr inbounds i8, ptr %57, i64 %1
  store ptr %58, ptr %56, align 8, !tbaa !32
  %.not51 = icmp eq ptr %55, null
  br i1 %.not51, label %NeedCompressedAlpha.exit.thread, label %59

59:                                               ; preds = %53
  %60 = getelementptr inbounds nuw i8, ptr %55, i64 24
  %61 = load ptr, ptr %60, align 8, !tbaa !113
  %.not52 = icmp eq ptr %61, null
  br i1 %.not52, label %NeedCompressedAlpha.exit.thread, label %62

62:                                               ; preds = %59
  %63 = getelementptr inbounds nuw i8, ptr %55, i64 8
  %64 = load i32, ptr %63, align 8, !tbaa !116
  %65 = icmp eq i32 %64, 1
  br i1 %65, label %66, label %NeedCompressedAlpha.exit.thread

66:                                               ; preds = %62
  %67 = getelementptr inbounds nuw i8, ptr %61, i64 40
  %68 = getelementptr inbounds nuw i8, ptr %58, i64 1
  %69 = getelementptr inbounds nuw i8, ptr %14, i64 2976
  %70 = load i64, ptr %69, align 8, !tbaa !58
  %71 = add i64 %70, -1
  tail call void @VP8LBitReaderSetBuffer(ptr noundef nonnull %67, ptr noundef nonnull %68, i64 noundef %71) #7
  br label %NeedCompressedAlpha.exit.thread

72:                                               ; preds = %15
  %73 = getelementptr inbounds nuw i8, ptr %14, i64 40
  tail call void @VP8LBitReaderSetBuffer(ptr noundef nonnull %73, ptr noundef %8, i64 noundef %11) #7
  br label %NeedCompressedAlpha.exit.thread

NeedCompressedAlpha.exit.thread:                  ; preds = %47, %45, %31, %NeedCompressedAlpha.exit, %66, %62, %59, %53, %72, %2
  ret void
}